target datalayout = "e-m:e-p270:32:32-p271:32:32-p272:64:64-i64:64-i128:128-f80:128-n8:16:32:64-S128"
target triple = "x86_64-pc-linux-gnu"

%"class.std::__cxx11::basic_string" = type { %"struct.std::__cxx11::basic_string<char>::_Alloc_hider", i64, %union.anon.8 }
%"struct.std::__cxx11::basic_string<char>::_Alloc_hider" = type { ptr }
%union.anon.8 = type { i64, [8 x i8] }
%"class.llvm::StringMapImpl" = type { ptr, i32, i32, i32, i32 }
%"class.std::vector.162" = type { %"struct.std::_Vector_base.163" }
%"struct.std::_Vector_base.163" = type { %"struct.std::_Vector_base<llvm::Constant *, std::allocator<llvm::Constant *>>::_Vector_impl" }
%"struct.std::_Vector_base<llvm::Constant *, std::allocator<llvm::Constant *>>::_Vector_impl" = type { %"struct.std::_Vector_base<llvm::Constant *, std::allocator<llvm::Constant *>>::_Vector_impl_data" }
%"struct.std::_Vector_base<llvm::Constant *, std::allocator<llvm::Constant *>>::_Vector_impl_data" = type { ptr, ptr, ptr }
%"class.llvm::StringMap.173" = type { %"class.llvm::StringMapImpl" }
%"class.clang::QualType" = type { %"class.llvm::PointerIntPair.257" }
%"class.llvm::PointerIntPair.257" = type { %"struct.llvm::detail::PunnedPointer.258" }
%"struct.llvm::detail::PunnedPointer.258" = type { [8 x i8] }
%"class.llvm::FunctionCallee" = type { ptr, ptr }
%"class.(anonymous namespace)::CGObjCGNU" = type { %"class.clang::CodeGen::CGObjCRuntime", ptr, ptr, ptr, ptr, ptr, ptr, ptr, ptr, ptr, ptr, ptr, ptr, ptr, %"class.clang::CanQual", ptr, ptr, ptr, ptr, ptr, ptr, ptr, ptr, ptr, ptr, ptr, i32, i8, i8, [2 x ptr], ptr, ptr, ptr, ptr, %"class.std::vector.162", %"class.std::vector.162", %"class.std::vector.162", %"class.llvm::StringMap.173", %"class.llvm::StringMap.173", %"class.llvm::DenseMap.325", %"class.clang::Selector", %"class.clang::Selector", %"class.clang::Selector", %"class.(anonymous namespace)::LazyRuntimeFunction", %"class.(anonymous namespace)::LazyRuntimeFunction", %"class.(anonymous namespace)::LazyRuntimeFunction", %"class.(anonymous namespace)::LazyRuntimeFunction", %"class.(anonymous namespace)::LazyRuntimeFunction", %"class.(anonymous namespace)::LazyRuntimeFunction", %"class.std::vector.330", %"class.(anonymous namespace)::LazyRuntimeFunction", %"class.(anonymous namespace)::LazyRuntimeFunction", %"class.(anonymous namespace)::LazyRuntimeFunction", %"class.(anonymous namespace)::LazyRuntimeFunction", %"class.(anonymous namespace)::LazyRuntimeFunction", %"class.(anonymous namespace)::LazyRuntimeFunction", %"class.(anonymous namespace)::LazyRuntimeFunction", %"class.(anonymous namespace)::LazyRuntimeFunction", %"class.(anonymous namespace)::LazyRuntimeFunction", %"class.(anonymous namespace)::LazyRuntimeFunction", %"class.(anonymous namespace)::LazyRuntimeFunction", i32, i32, i32, [4 x i8], %"class.llvm::DenseMap.335" }
%"class.clang::CodeGen::CGObjCRuntime" = type { ptr, ptr }
%"class.clang::CanQual" = type { %"class.clang::QualType" }
%"class.llvm::DenseMap.325" = type <{ ptr, i32, i32, i32, [4 x i8] }>
%"class.clang::Selector" = type { %"class.llvm::PointerIntPair.328" }
%"class.llvm::PointerIntPair.328" = type { %"struct.llvm::detail::PunnedPointer.329" }
%"struct.llvm::detail::PunnedPointer.329" = type { [8 x i8] }
%"class.std::vector.330" = type { %"struct.std::_Vector_base.331" }
%"struct.std::_Vector_base.331" = type { %"struct.std::_Vector_base<std::pair<std::__cxx11::basic_string<char>, std::__cxx11::basic_string<char>>, std::allocator<std::pair<std::__cxx11::basic_string<char>, std::__cxx11::basic_string<char>>>>::_Vector_impl" }
%"struct.std::_Vector_base<std::pair<std::__cxx11::basic_string<char>, std::__cxx11::basic_string<char>>, std::allocator<std::pair<std::__cxx11::basic_string<char>, std::__cxx11::basic_string<char>>>>::_Vector_impl" = type { %"struct.std::_Vector_base<std::pair<std::__cxx11::basic_string<char>, std::__cxx11::basic_string<char>>, std::allocator<std::pair<std::__cxx11::basic_string<char>, std::__cxx11::basic_string<char>>>>::_Vector_impl_data" }
%"struct.std::_Vector_base<std::pair<std::__cxx11::basic_string<char>, std::__cxx11::basic_string<char>>, std::allocator<std::pair<std::__cxx11::basic_string<char>, std::__cxx11::basic_string<char>>>>::_Vector_impl_data" = type { ptr, ptr, ptr }
%"class.llvm::DenseMap.335" = type <{ ptr, i32, i32, i32, [4 x i8] }>
%"class.(anonymous namespace)::LazyRuntimeFunction" = type { ptr, ptr, ptr, %"class.llvm::FunctionCallee" }
%"class.llvm::Twine" = type <{ %"union.llvm::Twine::Child", %"union.llvm::Twine::Child", i8, i8, [6 x i8] }>
%"union.llvm::Twine::Child" = type { %struct.anon.925 }
%struct.anon.925 = type { ptr, i64 }
%"class.llvm::StringRef" = type { ptr, i64 }
%"class.std::optional.806" = type { %"struct.std::_Optional_base.807" }
%"struct.std::_Optional_base.807" = type { %"struct.std::_Optional_payload.809" }
%"struct.std::_Optional_payload.809" = type { %"struct.std::_Optional_payload_base.base.811", [3 x i8] }
%"struct.std::_Optional_payload_base.base.811" = type <{ %"union.std::_Optional_payload_base<unsigned int>::_Storage", i8 }>
%"union.std::_Optional_payload_base<unsigned int>::_Storage" = type { i32 }
%"class.std::allocator" = type { i8 }
%"struct.std::_Optional_payload_base.810" = type <{ %"union.std::_Optional_payload_base<unsigned int>::_Storage", i8, [3 x i8] }>

@.str.44 = private unnamed_addr constant [13 x i8] c"_OBJC_CLASS_\00", align 1

; Function Attrs: mustprogress nounwind uwtable
define linkonce_odr hidden void @_ZNSt22_Optional_payload_baseIjE8_StorageIjLb1EEC2Ev(ptr noundef nonnull align 4 dereferenceable(4) %0) unnamed_addr #0 comdat align 2 {
  %2 = alloca ptr, align 8
  store ptr %0, ptr %2, align 8
  ret void
}

; Function Attrs: mustprogress nounwind uwtable
define linkonce_odr hidden void @_ZNSt22_Optional_payload_baseIjEC2Ev(ptr noundef nonnull align 4 dereferenceable(5) %0) unnamed_addr #0 comdat align 2 {
  %2 = alloca ptr, align 8
  store ptr %0, ptr %2, align 8
  %3 = load ptr, ptr %2, align 8
  %4 = getelementptr inbounds nuw %"struct.std::_Optional_payload_base.810", ptr %3, i32 0, i32 0
  call void @_ZNSt22_Optional_payload_baseIjE8_StorageIjLb1EEC2Ev(ptr noundef nonnull align 4 dereferenceable(4) %4) #13
  %5 = getelementptr inbounds nuw %"struct.std::_Optional_payload_base.810", ptr %3, i32 0, i32 1
  store i8 0, ptr %5, align 4
  ret void
}

; Function Attrs: mustprogress nounwind uwtable
define linkonce_odr hidden void @_ZNSt17_Optional_payloadIjLb1ELb1ELb1EEC2Ev(ptr noundef nonnull align 4 dereferenceable(5) %0) unnamed_addr #0 comdat align 2 {
  %2 = alloca ptr, align 8
  store ptr %0, ptr %2, align 8
  %3 = load ptr, ptr %2, align 8
  call void @_ZNSt22_Optional_payload_baseIjEC2Ev(ptr noundef nonnull align 4 dereferenceable(5) %3) #13
  ret void
}

; Function Attrs: mustprogress nounwind uwtable
define linkonce_odr hidden void @_ZNSt16allocator_traitsISaIcEE37select_on_container_copy_constructionERKS0_(ptr dead_on_unwind noalias writable sret(%"class.std::allocator") align 1 %0, ptr noundef nonnull align 1 dereferenceable(1) %1) #0 comdat align 2 {
  %3 = alloca ptr, align 8
  %4 = alloca ptr, align 8
  store ptr %0, ptr %3, align 8
  store ptr %1, ptr %4, align 8
  %5 = load ptr, ptr %4, align 8
  call void @_ZNSaIcEC1ERKS_(ptr noundef nonnull align 1 dereferenceable(1) %0, ptr noundef nonnull align 1 dereferenceable(1) %5) #13
  ret void
}

; Function Attrs: mustprogress nounwind uwtable
define linkonce_odr hidden void @_ZNSt14_Optional_baseIjLb1ELb1EEC2Ev(ptr noundef nonnull align 4 dereferenceable(8) %0) unnamed_addr #0 comdat align 2 {
  %2 = alloca ptr, align 8
  store ptr %0, ptr %2, align 8
  %3 = load ptr, ptr %2, align 8
  %4 = getelementptr inbounds nuw %"struct.std::_Optional_base.807", ptr %3, i32 0, i32 0
  call void @_ZNSt17_Optional_payloadIjLb1ELb1ELb1EEC2Ev(ptr noundef nonnull align 4 dereferenceable(5) %4) #13
  ret void
}

; Function Attrs: mustprogress nounwind uwtable
define linkonce_odr hidden void @_ZN9__gnu_cxx14__alloc_traitsISaIcEcE17_S_select_on_copyERKS1_(ptr dead_on_unwind noalias writable sret(%"class.std::allocator") align 1 %0, ptr noundef nonnull align 1 dereferenceable(1) %1) #0 comdat align 2 {
  %3 = alloca ptr, align 8
  %4 = alloca ptr, align 8
  store ptr %0, ptr %3, align 8
  store ptr %1, ptr %4, align 8
  %5 = load ptr, ptr %4, align 8
  call void @_ZNSt16allocator_traitsISaIcEE37select_on_container_copy_constructionERKS0_(ptr dead_on_unwind writable sret(%"class.std::allocator") align 1 %0, ptr noundef nonnull align 1 dereferenceable(1) %5)
  ret void
}

; Function Attrs: mustprogress nounwind uwtable
define linkonce_odr hidden noundef i64 @_ZNSt11char_traitsIcE6lengthEPKc(ptr noundef %0) #0 comdat align 2 {
  %2 = alloca ptr, align 8
  store ptr %0, ptr %2, align 8
  %3 = load ptr, ptr %2, align 8
  %4 = call i64 @strlen(ptr noundef %3) #13
  ret i64 %4
}

; Function Attrs: mustprogress nounwind uwtable
define linkonce_odr hidden void @_ZNSt8optionalIjEC2ESt9nullopt_t(ptr noundef nonnull align 4 dereferenceable(8) %0) unnamed_addr #0 comdat align 2 {
  %2 = alloca ptr, align 8
  store ptr %0, ptr %2, align 8
  %3 = load ptr, ptr %2, align 8
  call void @_ZNSt14_Optional_baseIjLb1ELb1EEC2Ev(ptr noundef nonnull align 4 dereferenceable(8) %3) #13
  ret void
}

; Function Attrs: mustprogress nounwind uwtable
define linkonce_odr hidden void @_ZN4llvm5TwineC2ERKNSt7__cxx1112basic_stringIcSt11char_traitsIcESaIcEEE(ptr noundef nonnull align 8 dereferenceable(34) %0, ptr noundef nonnull align 8 dereferenceable(32) %1) unnamed_addr #0 comdat align 2 {
  %3 = alloca ptr, align 8
  %4 = alloca ptr, align 8
  store ptr %0, ptr %3, align 8
  store ptr %1, ptr %4, align 8
  %5 = load ptr, ptr %3, align 8
  %6 = getelementptr inbounds nuw %"class.llvm::Twine", ptr %5, i32 0, i32 2
  store i8 4, ptr %6, align 8
  %7 = getelementptr inbounds nuw %"class.llvm::Twine", ptr %5, i32 0, i32 3
  store i8 1, ptr %7, align 1
  %8 = load ptr, ptr %4, align 8
  %9 = getelementptr inbounds nuw %"class.llvm::Twine", ptr %5, i32 0, i32 0
  store ptr %8, ptr %9, align 8
  ret void
}

; Function Attrs: mustprogress nounwind uwtable
define linkonce_odr hidden noundef ptr @_ZN4llvm14GlobalVariablenwEm(i64 noundef %0) #0 comdat align 2 {
  %2 = alloca i64, align 8
  store i64 %0, ptr %2, align 8
  %3 = load i64, ptr %2, align 8
  %4 = call noundef ptr @_ZN4llvm4UsernwEmj(i64 noundef %3, i32 noundef 1)
  ret ptr %4
}

; Function Attrs: mustprogress nounwind uwtable
define linkonce_odr hidden noundef ptr @_ZN4llvm6Module17getGlobalVariableENS_9StringRefEb(ptr noundef nonnull align 8 dereferenceable(857) %0, ptr %1, i64 %2, i1 noundef zeroext %3) #0 comdat align 2 {
  %5 = alloca %"class.llvm::StringRef", align 8
  %6 = alloca ptr, align 8
  %7 = alloca i8, align 1
  %8 = alloca %"class.llvm::StringRef", align 8
  %9 = getelementptr inbounds nuw { ptr, i64 }, ptr %5, i32 0, i32 0
  store ptr %1, ptr %9, align 8
  %10 = getelementptr inbounds nuw { ptr, i64 }, ptr %5, i32 0, i32 1
  store i64 %2, ptr %10, align 8
  store ptr %0, ptr %6, align 8
  %11 = zext i1 %3 to i8
  store i8 %11, ptr %7, align 1
  %12 = load ptr, ptr %6, align 8
  call void @llvm.memcpy.p0.p0.i64(ptr align 8 %8, ptr align 8 %5, i64 16, i1 false)
  %13 = load i8, ptr %7, align 1
  %14 = trunc i8 %13 to i1
  %15 = getelementptr inbounds nuw { ptr, i64 }, ptr %8, i32 0, i32 0
  %16 = load ptr, ptr %15, align 8
  %17 = getelementptr inbounds nuw { ptr, i64 }, ptr %8, i32 0, i32 1
  %18 = load i64, ptr %17, align 8
  %19 = call noundef ptr @_ZNK4llvm6Module17getGlobalVariableENS_9StringRefEb(ptr noundef nonnull align 8 dereferenceable(857) %12, ptr %16, i64 %18, i1 noundef zeroext %14)
  ret ptr %19
}

; Function Attrs: mustprogress nounwind uwtable
define linkonce_odr hidden void @_ZN4llvm9StringRefC2ERKNSt7__cxx1112basic_stringIcSt11char_traitsIcESaIcEEE(ptr noundef nonnull align 8 dereferenceable(16) %0, ptr noundef nonnull align 8 dereferenceable(32) %1) unnamed_addr #0 comdat align 2 {
  %3 = alloca ptr, align 8
  %4 = alloca ptr, align 8
  store ptr %0, ptr %3, align 8
  store ptr %1, ptr %4, align 8
  %5 = load ptr, ptr %3, align 8
  %6 = getelementptr inbounds nuw %"class.llvm::StringRef", ptr %5, i32 0, i32 0
  %7 = load ptr, ptr %4, align 8
  %8 = call noundef ptr @_ZNKSt7__cxx1112basic_stringIcSt11char_traitsIcESaIcEE4dataEv(ptr noundef nonnull align 8 dereferenceable(32) %7) #13
  store ptr %8, ptr %6, align 8
  %9 = getelementptr inbounds nuw %"class.llvm::StringRef", ptr %5, i32 0, i32 1
  %10 = load ptr, ptr %4, align 8
  %11 = call noundef i64 @_ZNKSt7__cxx1112basic_stringIcSt11char_traitsIcESaIcEE6lengthEv(ptr noundef nonnull align 8 dereferenceable(32) %10) #13
  store i64 %11, ptr %9, align 8
  ret void
}

; Function Attrs: mustprogress nounwind uwtable
define linkonce_odr void @_ZStplIcSt11char_traitsIcESaIcEENSt7__cxx1112basic_stringIT_T0_T1_EEPKS5_RKS8_(ptr dead_on_unwind noalias writable sret(%"class.std::__cxx11::basic_string") align 8 %0, ptr noundef %1, ptr noundef nonnull align 8 dereferenceable(32) %2) #0 comdat {
  %4 = alloca ptr, align 8
  %5 = alloca ptr, align 8
  %6 = alloca ptr, align 8
  %7 = alloca i64, align 8
  %8 = alloca i1, align 1
  %9 = alloca %"class.std::allocator", align 1
  %10 = alloca %"class.std::allocator", align 1
  store ptr %0, ptr %4, align 8
  store ptr %1, ptr %5, align 8
  store ptr %2, ptr %6, align 8
  %11 = load ptr, ptr %5, align 8
  %12 = call noundef i64 @_ZNSt11char_traitsIcE6lengthEPKc(ptr noundef %11)
  store i64 %12, ptr %7, align 8
  store i1 false, ptr %8, align 1
  %13 = load ptr, ptr %6, align 8
  call void @_ZNKSt7__cxx1112basic_stringIcSt11char_traitsIcESaIcEE13get_allocatorEv(ptr dead_on_unwind writable sret(%"class.std::allocator") align 1 %10, ptr noundef nonnull align 8 dereferenceable(32) %13) #13
  call void @_ZN9__gnu_cxx14__alloc_traitsISaIcEcE17_S_select_on_copyERKS1_(ptr dead_on_unwind writable sret(%"class.std::allocator") align 1 %9, ptr noundef nonnull align 1 dereferenceable(1) %10)
  call void @_ZNSt7__cxx1112basic_stringIcSt11char_traitsIcESaIcEEC1ERKS3_(ptr noundef nonnull align 8 dereferenceable(32) %0, ptr noundef nonnull align 1 dereferenceable(1) %9) #13
  call void @_ZNSaIcED1Ev(ptr noundef nonnull align 1 dereferenceable(1) %9) #13
  call void @_ZNSaIcED1Ev(ptr noundef nonnull align 1 dereferenceable(1) %10) #13
  %14 = load i64, ptr %7, align 8
  %15 = load ptr, ptr %6, align 8
  %16 = call noundef i64 @_ZNKSt7__cxx1112basic_stringIcSt11char_traitsIcESaIcEE4sizeEv(ptr noundef nonnull align 8 dereferenceable(32) %15) #13
  %17 = add i64 %14, %16
  call void @_ZNSt7__cxx1112basic_stringIcSt11char_traitsIcESaIcEE7reserveEm(ptr noundef nonnull align 8 dereferenceable(32) %0, i64 noundef %17)
  %18 = load ptr, ptr %5, align 8
  %19 = load i64, ptr %7, align 8
  %20 = call noundef nonnull align 8 dereferenceable(32) ptr @_ZNSt7__cxx1112basic_stringIcSt11char_traitsIcESaIcEE6appendEPKcm(ptr noundef nonnull align 8 dereferenceable(32) %0, ptr noundef %18, i64 noundef %19)
  %21 = load ptr, ptr %6, align 8
  %22 = call noundef nonnull align 8 dereferenceable(32) ptr @_ZNSt7__cxx1112basic_stringIcSt11char_traitsIcESaIcEE6appendERKS4_(ptr noundef nonnull align 8 dereferenceable(32) %0, ptr noundef nonnull align 8 dereferenceable(32) %21)
  store i1 true, ptr %8, align 1
  %23 = load i1, ptr %8, align 1
  br i1 %23, label %25, label %24

24:                                               ; preds = %3
  call void @_ZNSt7__cxx1112basic_stringIcSt11char_traitsIcESaIcEED1Ev(ptr noundef nonnull align 8 dereferenceable(32) %0) #13
  br label %25

25:                                               ; preds = %24, %3
  ret void
}

; Function Attrs: mustprogress nounwind uwtable
define internal noundef ptr @_ZN12_GLOBAL__N_111CGObjCObjFW13GetClassNamedERN5clang7CodeGen15CodeGenFunctionERKNSt7__cxx1112basic_stringIcSt11char_traitsIcESaIcEEEb(ptr noundef nonnull align 8 dereferenceable(1344) %0, ptr noundef nonnull align 8 dereferenceable(6488) %1, ptr noundef nonnull align 8 dereferenceable(32) %2, i1 noundef zeroext %3) unnamed_addr #0 align 2 {
  %5 = alloca ptr, align 8
  %6 = alloca ptr, align 8
  %7 = alloca ptr, align 8
  %8 = alloca ptr, align 8
  %9 = alloca i8, align 1
  %10 = alloca %"class.std::__cxx11::basic_string", align 8
  %11 = alloca ptr, align 8
  %12 = alloca %"class.llvm::StringRef", align 8
  %13 = alloca %"class.llvm::Twine", align 8
  %14 = alloca %"class.std::optional.806", align 4
  store ptr %0, ptr %6, align 8
  store ptr %1, ptr %7, align 8
  store ptr %2, ptr %8, align 8
  %15 = zext i1 %3 to i8
  store i8 %15, ptr %9, align 1
  %16 = load ptr, ptr %6, align 8
  %17 = load i8, ptr %9, align 1
  %18 = trunc i8 %17 to i1
  br i1 %18, label %19, label %25

19:                                               ; preds = %4
  %20 = load ptr, ptr %7, align 8
  %21 = load ptr, ptr %8, align 8
  %22 = load i8, ptr %9, align 1
  %23 = trunc i8 %22 to i1
  %24 = call noundef ptr @_ZN12_GLOBAL__N_19CGObjCGNU13GetClassNamedERN5clang7CodeGen15CodeGenFunctionERKNSt7__cxx1112basic_stringIcSt11char_traitsIcESaIcEEEb(ptr noundef nonnull align 8 dereferenceable(1184) %16, ptr noundef nonnull align 8 dereferenceable(6488) %20, ptr noundef nonnull align 8 dereferenceable(32) %21, i1 noundef zeroext %23)
  store ptr %24, ptr %5, align 8
  br label %48

25:                                               ; preds = %4
  %26 = load ptr, ptr %8, align 8
  call void @_ZN12_GLOBAL__N_19CGObjCGNU12EmitClassRefERKNSt7__cxx1112basic_stringIcSt11char_traitsIcESaIcEEE(ptr noundef nonnull align 8 dereferenceable(1184) %16, ptr noundef nonnull align 8 dereferenceable(32) %26)
  %27 = load ptr, ptr %8, align 8
  call void @_ZStplIcSt11char_traitsIcESaIcEENSt7__cxx1112basic_stringIT_T0_T1_EEPKS5_RKS8_(ptr dead_on_unwind writable sret(%"class.std::__cxx11::basic_string") align 8 %10, ptr noundef @.str.44, ptr noundef nonnull align 8 dereferenceable(32) %27)
  %28 = getelementptr inbounds nuw %"class.(anonymous namespace)::CGObjCGNU", ptr %16, i32 0, i32 1
  %29 = load ptr, ptr %28, align 8
  call void @_ZN4llvm9StringRefC2ERKNSt7__cxx1112basic_stringIcSt11char_traitsIcESaIcEEE(ptr noundef nonnull align 8 dereferenceable(16) %12, ptr noundef nonnull align 8 dereferenceable(32) %10)
  %30 = getelementptr inbounds nuw { ptr, i64 }, ptr %12, i32 0, i32 0
  %31 = load ptr, ptr %30, align 8
  %32 = getelementptr inbounds nuw { ptr, i64 }, ptr %12, i32 0, i32 1
  %33 = load i64, ptr %32, align 8
  %34 = call noundef ptr @_ZN4llvm6Module17getGlobalVariableENS_9StringRefEb(ptr noundef nonnull align 8 dereferenceable(857) %29, ptr %31, i64 %33, i1 noundef zeroext false)
  store ptr %34, ptr %11, align 8
  %35 = load ptr, ptr %11, align 8
  %36 = icmp ne ptr %35, null
  br i1 %36, label %46, label %37

37:                                               ; preds = %25
  %38 = call noundef ptr @_ZN4llvm14GlobalVariablenwEm(i64 noundef 88)
  %39 = getelementptr inbounds nuw %"class.(anonymous namespace)::CGObjCGNU", ptr %16, i32 0, i32 1
  %40 = load ptr, ptr %39, align 8
  %41 = getelementptr inbounds nuw %"class.(anonymous namespace)::CGObjCGNU", ptr %16, i32 0, i32 17
  %42 = load ptr, ptr %41, align 8
  call void @_ZN4llvm5TwineC2ERKNSt7__cxx1112basic_stringIcSt11char_traitsIcESaIcEEE(ptr noundef nonnull align 8 dereferenceable(34) %13, ptr noundef nonnull align 8 dereferenceable(32) %10)
  call void @_ZNSt8optionalIjEC2ESt9nullopt_t(ptr noundef nonnull align 4 dereferenceable(8) %14) #13
  %43 = getelementptr inbounds nuw %"class.std::optional.806", ptr %14, i32 0, i32 0
  %44 = getelementptr inbounds nuw %"struct.std::_Optional_base.807", ptr %43, i32 0, i32 0
  %45 = load i64, ptr %44, align 4
  call void @_ZN4llvm14GlobalVariableC1ERNS_6ModuleEPNS_4TypeEbNS_11GlobalValue12LinkageTypesEPNS_8ConstantERKNS_5TwineEPS0_NS5_15ThreadLocalModeESt8optionalIjEb(ptr noundef nonnull align 8 dereferenceable(81) %38, ptr noundef nonnull align 8 dereferenceable(857) %40, ptr noundef %42, i1 noundef zeroext false, i32 noundef 0, ptr noundef null, ptr noundef nonnull align 8 dereferenceable(34) %13, ptr noundef null, i32 noundef 0, i64 %45, i1 noundef zeroext false)
  store ptr %38, ptr %11, align 8
  br label %46

46:                                               ; preds = %37, %25
  %47 = load ptr, ptr %11, align 8
  store ptr %47, ptr %5, align 8
  call void @_ZNSt7__cxx1112basic_stringIcSt11char_traitsIcESaIcEED1Ev(ptr noundef nonnull align 8 dereferenceable(32) %10) #13
  br label %48

48:                                               ; preds = %46, %19
  %49 = load ptr, ptr %5, align 8
  ret ptr %49
}