; Function Attrs: mustprogress nounwind uwtable
define internal noundef ptr @_ZN12_GLOBAL__N_111CGObjCObjFW13GetClassNamedERN5clang7CodeGen15CodeGenFunctionERKNSt7__cxx1112basic_stringIcSt11char_traitsIcESaIcEEEb(ptr noundef nonnull readonly align 8 captures(none) dereferenceable(1344) %0, ptr noundef nonnull align 8 dereferenceable(6488) %1, ptr noundef nonnull align 8 dereferenceable(32) %2, i1 noundef zeroext %3) unnamed_addr #0 align 2 {
  %5 = alloca %"class.std::allocator", align 1
  %6 = alloca %"class.std::allocator", align 1
  %7 = alloca %"class.std::__cxx11::basic_string", align 8
  %8 = alloca %"class.llvm::Twine", align 8
  br i1 %3, label %9, label %11

9:                                                ; preds = %4
  %10 = tail call noundef ptr @_ZN12_GLOBAL__N_19CGObjCGNU13GetClassNamedERN5clang7CodeGen15CodeGenFunctionERKNSt7__cxx1112basic_stringIcSt11char_traitsIcESaIcEEEb(ptr noundef nonnull align 8 dereferenceable(1184) %0, ptr noundef nonnull align 8 dereferenceable(6488) %1, ptr noundef nonnull align 8 dereferenceable(32) %2, i1 noundef zeroext true)
  br label %29

11:                                               ; preds = %4
  tail call fastcc void @_ZN12_GLOBAL__N_19CGObjCGNU12EmitClassRefERKNSt7__cxx1112basic_stringIcSt11char_traitsIcESaIcEEE(ptr noundef nonnull align 8 dereferenceable(1184) %0, ptr noundef nonnull align 8 dereferenceable(32) %2)
  call void @llvm.lifetime.start.p0(i64 1, ptr nonnull %5)
  call void @llvm.lifetime.start.p0(i64 1, ptr nonnull %6)
  call void @_ZNKSt7__cxx1112basic_stringIcSt11char_traitsIcESaIcEE13get_allocatorEv(ptr dead_on_unwind nonnull writable sret(%"class.std::allocator") align 1 %6, ptr noundef nonnull align 8 dereferenceable(32) %2) #23, !noalias !644
  call void @_ZNSaIcEC1ERKS_(ptr noundef nonnull align 1 dereferenceable(1) %5, ptr noundef nonnull align 1 dereferenceable(1) %6) #23, !noalias !644
  call void @_ZNSt7__cxx1112basic_stringIcSt11char_traitsIcESaIcEEC1ERKS3_(ptr noundef nonnull align 8 dereferenceable(32) %7, ptr noundef nonnull align 1 dereferenceable(1) %5) #23
  call void @_ZNSaIcED1Ev(ptr noundef nonnull align 1 dereferenceable(1) %5) #23
  call void @_ZNSaIcED1Ev(ptr noundef nonnull align 1 dereferenceable(1) %6) #23
  %12 = call noundef i64 @_ZNKSt7__cxx1112basic_stringIcSt11char_traitsIcESaIcEE4sizeEv(ptr noundef nonnull align 8 dereferenceable(32) %2) #23
  %13 = add i64 %12, 12
  call void @_ZNSt7__cxx1112basic_stringIcSt11char_traitsIcESaIcEE7reserveEm(ptr noundef nonnull align 8 dereferenceable(32) %7, i64 noundef %13) #23
  %14 = call noundef nonnull align 8 dereferenceable(32) ptr @_ZNSt7__cxx1112basic_stringIcSt11char_traitsIcESaIcEE6appendEPKcm(ptr noundef nonnull align 8 dereferenceable(32) %7, ptr noundef nonnull @.str.44, i64 noundef 12) #23
  %15 = call noundef nonnull align 8 dereferenceable(32) ptr @_ZNSt7__cxx1112basic_stringIcSt11char_traitsIcESaIcEE6appendERKS4_(ptr noundef nonnull align 8 dereferenceable(32) %7, ptr noundef nonnull align 8 dereferenceable(32) %2) #23
  call void @llvm.lifetime.end.p0(i64 1, ptr nonnull %5)
  call void @llvm.lifetime.end.p0(i64 1, ptr nonnull %6)
  %16 = getelementptr inbounds nuw i8, ptr %0, i64 16
  %17 = load ptr, ptr %16, align 8
  %18 = call noundef ptr @_ZNKSt7__cxx1112basic_stringIcSt11char_traitsIcESaIcEE4dataEv(ptr noundef nonnull align 8 dereferenceable(32) %7) #23
  %19 = call noundef i64 @_ZNKSt7__cxx1112basic_stringIcSt11char_traitsIcESaIcEE6lengthEv(ptr noundef nonnull align 8 dereferenceable(32) %7) #23
  %20 = call noundef ptr @_ZNK4llvm6Module17getGlobalVariableENS_9StringRefEb(ptr noundef nonnull align 8 dereferenceable(857) %17, ptr %18, i64 %19, i1 noundef zeroext false) #23
  %.not = icmp eq ptr %20, null
  br i1 %.not, label %21, label %28

21:                                               ; preds = %11
  %22 = call noundef ptr @_ZN4llvm4UsernwEmj(i64 noundef 88, i32 noundef 1) #23
  %23 = load ptr, ptr %16, align 8
  %24 = getelementptr inbounds nuw i8, ptr %0, i64 144
  %25 = load ptr, ptr %24, align 8
  %26 = getelementptr inbounds nuw i8, ptr %8, i64 32
  store i8 4, ptr %26, align 8
  %27 = getelementptr inbounds nuw i8, ptr %8, i64 33
  store i8 1, ptr %27, align 1
  store ptr %7, ptr %8, align 8
  call void @_ZN4llvm14GlobalVariableC1ERNS_6ModuleEPNS_4TypeEbNS_11GlobalValue12LinkageTypesEPNS_8ConstantERKNS_5TwineEPS0_NS5_15ThreadLocalModeESt8optionalIjEb(ptr noundef nonnull align 8 dereferenceable(81) %22, ptr noundef nonnull align 8 dereferenceable(857) %23, ptr noundef %25, i1 noundef zeroext false, i32 noundef 0, ptr noundef null, ptr noundef nonnull align 8 dereferenceable(34) %8, ptr noundef null, i32 noundef 0, i64 0, i1 noundef zeroext false) #23
  br label %28

28:                                               ; preds = %21, %11
  %.0 = phi ptr [ %20, %11 ], [ %22, %21 ]
  call void @_ZNSt7__cxx1112basic_stringIcSt11char_traitsIcESaIcEED1Ev(ptr noundef nonnull align 8 dereferenceable(32) %7) #23
  br label %29

29:                                               ; preds = %28, %9
  %.09 = phi ptr [ %10, %9 ], [ %.0, %28 ]
  ret ptr %.09
}